target datalayout = "e-m:e-p270:32:32-p271:32:32-p272:64:64-i64:64-i128:128-f80:128-n8:16:32:64-S128"
target triple = "x86_64-pc-linux-gnu"

%struct.write_midx_context = type { ptr, i64, i64, ptr, ptr, ptr, i32, ptr, i64, ptr, ptr, i8, i32, i32, i32, i32, ptr, ptr }
%struct.pack_info = type { i32, ptr, ptr, i32, i32, i8 }

@.str.16 = private unnamed_addr constant [13 x i8] c"midx-write.c\00", align 1
@.str.49 = private unnamed_addr constant [40 x i8] c"incorrect pack-file order: %s before %s\00", align 1

; Function Attrs: nounwind uwtable
define internal i32 @write_midx_pack_names(ptr noundef %0, ptr noundef %1) #0 {
  %3 = alloca ptr, align 8
  %4 = alloca ptr, align 8
  %5 = alloca ptr, align 8
  %6 = alloca i32, align 4
  %7 = alloca [4 x i8], align 1
  %8 = alloca i64, align 8
  %9 = alloca i64, align 8
  %10 = alloca i32, align 4
  store ptr %0, ptr %3, align 8, !tbaa !15
  store ptr %1, ptr %4, align 8, !tbaa !137
  call void @llvm.lifetime.start.p0(i64 8, ptr %5) #11
  %11 = load ptr, ptr %4, align 8, !tbaa !137
  store ptr %11, ptr %5, align 8, !tbaa !133
  call void @llvm.lifetime.start.p0(i64 4, ptr %6) #11
  call void @llvm.lifetime.start.p0(i64 4, ptr %7) #11
  call void @llvm.lifetime.start.p0(i64 8, ptr %8) #11
  store i64 0, ptr %8, align 8, !tbaa !72
  store i32 0, ptr %6, align 4, !tbaa !11
  br label %12

12:                                               ; preds = %101, %2
  %13 = load i32, ptr %6, align 4, !tbaa !11
  %14 = zext i32 %13 to i64
  %15 = load ptr, ptr %5, align 8, !tbaa !133
  %16 = getelementptr inbounds nuw %struct.write_midx_context, ptr %15, i32 0, i32 1
  %17 = load i64, ptr %16, align 8, !tbaa !51
  %18 = icmp ult i64 %14, %17
  br i1 %18, label %19, label %104

19:                                               ; preds = %12
  call void @llvm.lifetime.start.p0(i64 8, ptr %9) #11
  %20 = load ptr, ptr %5, align 8, !tbaa !133
  %21 = getelementptr inbounds nuw %struct.write_midx_context, ptr %20, i32 0, i32 0
  %22 = load ptr, ptr %21, align 8, !tbaa !53
  %23 = load i32, ptr %6, align 4, !tbaa !11
  %24 = zext i32 %23 to i64
  %25 = getelementptr inbounds nuw %struct.pack_info, ptr %22, i64 %24
  %26 = getelementptr inbounds nuw %struct.pack_info, ptr %25, i32 0, i32 5
  %27 = load i8, ptr %26, align 8
  %28 = and i8 %27, 1
  %29 = zext i8 %28 to i32
  %30 = icmp ne i32 %29, 0
  br i1 %30, label %31, label %32

31:                                               ; preds = %19
  store i32 4, ptr %10, align 4
  br label %98

32:                                               ; preds = %19
  %33 = load i32, ptr %6, align 4, !tbaa !11
  %34 = icmp ne i32 %33, 0
  br i1 %34, label %35, label %73

35:                                               ; preds = %32
  %36 = load ptr, ptr %5, align 8, !tbaa !133
  %37 = getelementptr inbounds nuw %struct.write_midx_context, ptr %36, i32 0, i32 0
  %38 = load ptr, ptr %37, align 8, !tbaa !53
  %39 = load i32, ptr %6, align 4, !tbaa !11
  %40 = zext i32 %39 to i64
  %41 = getelementptr inbounds nuw %struct.pack_info, ptr %38, i64 %40
  %42 = getelementptr inbounds nuw %struct.pack_info, ptr %41, i32 0, i32 1
  %43 = load ptr, ptr %42, align 8, !tbaa !63
  %44 = load ptr, ptr %5, align 8, !tbaa !133
  %45 = getelementptr inbounds nuw %struct.write_midx_context, ptr %44, i32 0, i32 0
  %46 = load ptr, ptr %45, align 8, !tbaa !53
  %47 = load i32, ptr %6, align 4, !tbaa !11
  %48 = sub i32 %47, 1
  %49 = zext i32 %48 to i64
  %50 = getelementptr inbounds nuw %struct.pack_info, ptr %46, i64 %49
  %51 = getelementptr inbounds nuw %struct.pack_info, ptr %50, i32 0, i32 1
  %52 = load ptr, ptr %51, align 8, !tbaa !63
  %53 = call i32 @strcmp(ptr noundef %43, ptr noundef %52) #13
  %54 = icmp sle i32 %53, 0
  br i1 %54, label %55, label %73

55:                                               ; preds = %35
  %56 = load ptr, ptr %5, align 8, !tbaa !133
  %57 = getelementptr inbounds nuw %struct.write_midx_context, ptr %56, i32 0, i32 0
  %58 = load ptr, ptr %57, align 8, !tbaa !53
  %59 = load i32, ptr %6, align 4, !tbaa !11
  %60 = sub i32 %59, 1
  %61 = zext i32 %60 to i64
  %62 = getelementptr inbounds nuw %struct.pack_info, ptr %58, i64 %61
  %63 = getelementptr inbounds nuw %struct.pack_info, ptr %62, i32 0, i32 1
  %64 = load ptr, ptr %63, align 8, !tbaa !63
  %65 = load ptr, ptr %5, align 8, !tbaa !133
  %66 = getelementptr inbounds nuw %struct.write_midx_context, ptr %65, i32 0, i32 0
  %67 = load ptr, ptr %66, align 8, !tbaa !53
  %68 = load i32, ptr %6, align 4, !tbaa !11
  %69 = zext i32 %68 to i64
  %70 = getelementptr inbounds nuw %struct.pack_info, ptr %67, i64 %69
  %71 = getelementptr inbounds nuw %struct.pack_info, ptr %70, i32 0, i32 1
  %72 = load ptr, ptr %71, align 8, !tbaa !63
  call void (ptr, i32, ptr, ...) @BUG_fl(ptr noundef @.str.16, i32 noundef 415, ptr noundef @.str.49, ptr noundef %64, ptr noundef %72) #12
  unreachable

73:                                               ; preds = %35, %32
  %74 = load ptr, ptr %5, align 8, !tbaa !133
  %75 = getelementptr inbounds nuw %struct.write_midx_context, ptr %74, i32 0, i32 0
  %76 = load ptr, ptr %75, align 8, !tbaa !53
  %77 = load i32, ptr %6, align 4, !tbaa !11
  %78 = zext i32 %77 to i64
  %79 = getelementptr inbounds nuw %struct.pack_info, ptr %76, i64 %78
  %80 = getelementptr inbounds nuw %struct.pack_info, ptr %79, i32 0, i32 1
  %81 = load ptr, ptr %80, align 8, !tbaa !63
  %82 = call i64 @strlen(ptr noundef %81) #13
  %83 = add i64 %82, 1
  store i64 %83, ptr %9, align 8, !tbaa !72
  %84 = load ptr, ptr %3, align 8, !tbaa !15
  %85 = load ptr, ptr %5, align 8, !tbaa !133
  %86 = getelementptr inbounds nuw %struct.write_midx_context, ptr %85, i32 0, i32 0
  %87 = load ptr, ptr %86, align 8, !tbaa !53
  %88 = load i32, ptr %6, align 4, !tbaa !11
  %89 = zext i32 %88 to i64
  %90 = getelementptr inbounds nuw %struct.pack_info, ptr %87, i64 %89
  %91 = getelementptr inbounds nuw %struct.pack_info, ptr %90, i32 0, i32 1
  %92 = load ptr, ptr %91, align 8, !tbaa !63
  %93 = load i64, ptr %9, align 8, !tbaa !72
  %94 = trunc i64 %93 to i32
  call void @hashwrite(ptr noundef %84, ptr noundef %92, i32 noundef %94)
  %95 = load i64, ptr %9, align 8, !tbaa !72
  %96 = load i64, ptr %8, align 8, !tbaa !72
  %97 = add i64 %96, %95
  store i64 %97, ptr %8, align 8, !tbaa !72
  store i32 0, ptr %10, align 4
  br label %98

98:                                               ; preds = %73, %31
  call void @llvm.lifetime.end.p0(i64 8, ptr %9) #11
  %99 = load i32, ptr %10, align 4
  switch i32 %99, label %117 [
    i32 0, label %100
    i32 4, label %101
  ]

100:                                              ; preds = %98
  br label %101

101:                                              ; preds = %100, %98
  %102 = load i32, ptr %6, align 4, !tbaa !11
  %103 = add i32 %102, 1
  store i32 %103, ptr %6, align 4, !tbaa !11
  br label %12, !llvm.loop !151

104:                                              ; preds = %12
  %105 = load i64, ptr %8, align 8, !tbaa !72
  %106 = urem i64 %105, 4
  %107 = sub i64 4, %106
  %108 = trunc i64 %107 to i32
  store i32 %108, ptr %6, align 4, !tbaa !11
  %109 = load i32, ptr %6, align 4, !tbaa !11
  %110 = icmp ult i32 %109, 4
  br i1 %110, label %111, label %116

111:                                              ; preds = %104
  %112 = getelementptr inbounds [4 x i8], ptr %7, i64 0, i64 0
  call void @llvm.memset.p0.i64(ptr align 1 %112, i8 0, i64 4, i1 false)
  %113 = load ptr, ptr %3, align 8, !tbaa !15
  %114 = getelementptr inbounds [4 x i8], ptr %7, i64 0, i64 0
  %115 = load i32, ptr %6, align 4, !tbaa !11
  call void @hashwrite(ptr noundef %113, ptr noundef %114, i32 noundef %115)
  br label %116

116:                                              ; preds = %111, %104
  store i32 1, ptr %10, align 4
  call void @llvm.lifetime.end.p0(i64 8, ptr %8) #11
  call void @llvm.lifetime.end.p0(i64 4, ptr %7) #11
  call void @llvm.lifetime.end.p0(i64 4, ptr %6) #11
  call void @llvm.lifetime.end.p0(i64 8, ptr %5) #11
  ret i32 0

117:                                              ; preds = %98
  unreachable
}