; Function Attrs: nounwind uwtable
define internal noundef i32 @write_midx_pack_names(ptr noundef %0, ptr noundef readonly captures(none) %1) #0 {
  %3 = alloca [4 x i8], align 4
  call void @llvm.lifetime.start.p0(i64 4, ptr nonnull %3) #19
  %4 = getelementptr inbounds nuw i8, ptr %1, i64 8
  %5 = load i64, ptr %4, align 8, !tbaa !43
  %.not36 = icmp eq i64 %5, 0
  br i1 %.not36, label %._crit_edge.thread, label %.lr.ph

.lr.ph:                                           ; preds = %2, %30
  %6 = phi i64 [ %31, %30 ], [ %5, %2 ]
  %7 = phi i64 [ %33, %30 ], [ 0, %2 ]
  %.034 = phi i32 [ %32, %30 ], [ 0, %2 ]
  %.02633 = phi i64 [ %.1, %30 ], [ 0, %2 ]
  %8 = load ptr, ptr %1, align 8, !tbaa !45
  %9 = getelementptr inbounds nuw %struct.pack_info, ptr %8, i64 %7
  %10 = getelementptr inbounds nuw i8, ptr %9, i64 32
  %11 = load i8, ptr %10, align 8
  %12 = and i8 %11, 1
  %.not29 = icmp eq i8 %12, 0
  br i1 %.not29, label %13, label %30

13:                                               ; preds = %.lr.ph
  %.not30 = icmp eq i32 %.034, 0
  br i1 %.not30, label %._crit_edge38, label %14

._crit_edge38:                                    ; preds = %13
  %.phi.trans.insert = getelementptr inbounds nuw %struct.pack_info, ptr %8, i64 %7, i32 1
  %.pre = load ptr, ptr %.phi.trans.insert, align 8, !tbaa !60
  br label %24

14:                                               ; preds = %13
  %15 = getelementptr inbounds nuw i8, ptr %9, i64 8
  %16 = load ptr, ptr %15, align 8, !tbaa !60
  %17 = add i32 %.034, -1
  %18 = zext i32 %17 to i64
  %19 = getelementptr inbounds nuw %struct.pack_info, ptr %8, i64 %18, i32 1
  %20 = load ptr, ptr %19, align 8, !tbaa !60
  %21 = tail call i32 @strcmp(ptr noundef nonnull dereferenceable(1) %16, ptr noundef nonnull dereferenceable(1) %20) #21
  %22 = icmp slt i32 %21, 1
  br i1 %22, label %23, label %24

23:                                               ; preds = %14
  tail call void (ptr, i32, ptr, ...) @BUG_fl(ptr noundef nonnull @.str.16, i32 noundef 415, ptr noundef nonnull @.str.49, ptr noundef nonnull %20, ptr noundef nonnull %16) #20
  unreachable

24:                                               ; preds = %._crit_edge38, %14
  %25 = phi ptr [ %.pre, %._crit_edge38 ], [ %16, %14 ]
  %26 = tail call i64 @strlen(ptr noundef nonnull dereferenceable(1) %25) #21
  %27 = add i64 %26, 1
  %28 = trunc i64 %27 to i32
  tail call void @hashwrite(ptr noundef %0, ptr noundef nonnull %25, i32 noundef %28) #19
  %29 = add i64 %27, %.02633
  %.pre39 = load i64, ptr %4, align 8, !tbaa !43
  br label %30

30:                                               ; preds = %.lr.ph, %24
  %31 = phi i64 [ %.pre39, %24 ], [ %6, %.lr.ph ]
  %.1 = phi i64 [ %29, %24 ], [ %.02633, %.lr.ph ]
  %32 = add i32 %.034, 1
  %33 = zext i32 %32 to i64
  %34 = icmp ugt i64 %31, %33
  br i1 %34, label %.lr.ph, label %._crit_edge, !llvm.loop !207

._crit_edge:                                      ; preds = %30
  %35 = trunc i64 %.1 to i32
  %36 = and i32 %35, 3
  %.not = icmp eq i32 %36, 0
  br i1 %.not, label %._crit_edge.thread, label %37

37:                                               ; preds = %._crit_edge
  %38 = sub nuw nsw i32 4, %36
  store i32 0, ptr %3, align 4
  call void @hashwrite(ptr noundef %0, ptr noundef nonnull %3, i32 noundef %38) #19
  br label %._crit_edge.thread

._crit_edge.thread:                               ; preds = %2, %37, %._crit_edge
  call void @llvm.lifetime.end.p0(i64 4, ptr nonnull %3) #19
  ret i32 0
}